#include <math.h>
#include <stdio.h>
#include <stdlib.h>
#include <string.h>

int main()
{
	char str[10],substr[10];
	int i,max;
	while(scanf("%s%s",str,substr)!=EOF)
	{
	max=0;
		for(i=0;i<strlen(str);i++)
		{
			if(str[i]>str[max])
			{
				max=i;
			}
		}
		for(i=0;i<=max;i++)
		{
			printf("%c",str[i]);
		}
		for(i=0;i<strlen(substr);i++)
		{
			printf("%c",substr[i]);
		}
		for(i=max+1;i<strlen(str);i++)
		{
			printf("%c",str[i]);
		}printf("\n");
	}
	return 0;
}